target datalayout = "e-m:e-p270:32:32-p271:32:32-p272:64:64-i64:64-i128:128-f80:128-n8:16:32:64-S128"
target triple = "x86_64-pc-linux-gnu"

%struct.CheckpointStatsData = type { i64, i64, i64, i64, i64, i32, i32, i32, i32, i32, i32, i64, i64 }

@CheckpointStats = dso_local global %struct.CheckpointStatsData zeroinitializer, align 8

; Function Attrs: nounwind uwtable
define internal void @CheckPointGuts(i64 noundef %0, i32 noundef %1) #0 {
  %3 = alloca i64, align 8
  %4 = alloca i32, align 4
  store i64 %0, ptr %3, align 8
  store i32 %1, ptr %4, align 4
  call void @CheckPointRelationMap()
  %5 = load i32, ptr %4, align 4
  %6 = and i32 %5, 1
  %7 = icmp ne i32 %6, 0
  call void @CheckPointReplicationSlots(i1 noundef zeroext %7)
  call void @CheckPointSnapBuild()
  call void @CheckPointLogicalRewriteHeap()
  call void @CheckPointReplicationOrigin()
  br label %8

8:                                                ; preds = %2
  br label %9

9:                                                ; preds = %8
  %10 = call i64 @GetCurrentTimestamp()
  store i64 %10, ptr getelementptr inbounds nuw (%struct.CheckpointStatsData, ptr @CheckpointStats, i32 0, i32 1), align 8
  call void @CheckPointCLOG()
  call void @CheckPointCommitTs()
  call void @CheckPointSUBTRANS()
  call void @CheckPointMultiXact()
  call void @CheckPointPredicate()
  %11 = load i32, ptr %4, align 4
  call void @CheckPointBuffers(i32 noundef %11)
  br label %12

12:                                               ; preds = %9
  br label %13

13:                                               ; preds = %12
  %14 = call i64 @GetCurrentTimestamp()
  store i64 %14, ptr getelementptr inbounds nuw (%struct.CheckpointStatsData, ptr @CheckpointStats, i32 0, i32 2), align 8
  call void @ProcessSyncRequests()
  %15 = call i64 @GetCurrentTimestamp()
  store i64 %15, ptr getelementptr inbounds nuw (%struct.CheckpointStatsData, ptr @CheckpointStats, i32 0, i32 3), align 8
  br label %16

16:                                               ; preds = %13
  br label %17

17:                                               ; preds = %16
  %18 = load i64, ptr %3, align 8
  call void @CheckPointTwoPhase(i64 noundef %18)
  ret void
}